; ModuleID = '55/1555.c'
source_filename = "55/1555.c"
target datalayout = "e-m:e-p270:32:32-p271:32:32-p272:64:64-i64:64-f80:128-n8:16:32:64-S128"
target triple = "x86_64-pc-linux-gnu"

@.str = private unnamed_addr constant [9 x i8] c"%d %s %d\00", align 1
@.str.1 = private unnamed_addr constant [2 x i8] c"0\00", align 1
@.str.2 = private unnamed_addr constant [3 x i8] c"%c\00", align 1
@.str.3 = private unnamed_addr constant [3 x i8] c"%d\00", align 1

; Function Attrs: noinline nounwind uwtable
define dso_local i32 @main() #0 {
  %1 = alloca i32, align 4
  %2 = alloca i32, align 4
  %3 = alloca i32, align 4
  %4 = alloca i32, align 4
  %5 = alloca i32, align 4
  %6 = alloca i32, align 4
  %7 = alloca i32, align 4
  %8 = alloca i32, align 4
  %9 = alloca [1000 x i32], align 16
  %10 = alloca i64, align 8
  %11 = alloca i64, align 8
  %12 = alloca [500 x i8], align 16
  store i32 0, i32* %1, align 4
  store i64 0, i64* %10, align 8
  store i64 1, i64* %11, align 8
  %13 = getelementptr inbounds [500 x i8], [500 x i8]* %12, i64 0, i64 0
  %14 = call i32 (i8*, ...) @__isoc99_scanf(i8* getelementptr inbounds ([9 x i8], [9 x i8]* @.str, i64 0, i64 0), i32* %7, i8* %13, i32* %8)
  %15 = getelementptr inbounds [500 x i8], [500 x i8]* %12, i64 0, i64 0
  %16 = call i64 @strlen(i8* %15) #3
  %17 = trunc i64 %16 to i32
  store i32 %17, i32* %6, align 4
  %18 = load i32, i32* %6, align 4
  %19 = sub nsw i32 %18, 1
  store i32 %19, i32* %2, align 4
  br label %20

20:                                               ; preds = %118, %0
  %21 = load i32, i32* %2, align 4
  %22 = icmp sge i32 %21, 0
  br i1 %22, label %23, label %121

23:                                               ; preds = %20
  %24 = load i32, i32* %2, align 4
  %25 = sext i32 %24 to i64
  %26 = getelementptr inbounds [500 x i8], [500 x i8]* %12, i64 0, i64 %25
  %27 = load i8, i8* %26, align 1
  %28 = sext i8 %27 to i32
  %29 = icmp sle i32 %28, 90
  br i1 %29, label %30, label %49

30:                                               ; preds = %23
  %31 = load i32, i32* %2, align 4
  %32 = sext i32 %31 to i64
  %33 = getelementptr inbounds [500 x i8], [500 x i8]* %12, i64 0, i64 %32
  %34 = load i8, i8* %33, align 1
  %35 = sext i8 %34 to i32
  %36 = icmp sge i32 %35, 65
  br i1 %36, label %37, label %49

37:                                               ; preds = %30
  %38 = load i32, i32* %2, align 4
  %39 = sext i32 %38 to i64
  %40 = getelementptr inbounds [500 x i8], [500 x i8]* %12, i64 0, i64 %39
  %41 = load i8, i8* %40, align 1
  %42 = sext i8 %41 to i32
  %43 = sub nsw i32 %42, 65
  %44 = add nsw i32 %43, 10
  %45 = trunc i32 %44 to i8
  %46 = load i32, i32* %2, align 4
  %47 = sext i32 %46 to i64
  %48 = getelementptr inbounds [500 x i8], [500 x i8]* %12, i64 0, i64 %47
  store i8 %45, i8* %48, align 1
  br label %49

49:                                               ; preds = %37, %30, %23
  %50 = load i32, i32* %2, align 4
  %51 = sext i32 %50 to i64
  %52 = getelementptr inbounds [500 x i8], [500 x i8]* %12, i64 0, i64 %51
  %53 = load i8, i8* %52, align 1
  %54 = sext i8 %53 to i32
  %55 = icmp sle i32 %54, 122
  br i1 %55, label %56, label %75

56:                                               ; preds = %49
  %57 = load i32, i32* %2, align 4
  %58 = sext i32 %57 to i64
  %59 = getelementptr inbounds [500 x i8], [500 x i8]* %12, i64 0, i64 %58
  %60 = load i8, i8* %59, align 1
  %61 = sext i8 %60 to i32
  %62 = icmp sge i32 %61, 97
  br i1 %62, label %63, label %75

63:                                               ; preds = %56
  %64 = load i32, i32* %2, align 4
  %65 = sext i32 %64 to i64
  %66 = getelementptr inbounds [500 x i8], [500 x i8]* %12, i64 0, i64 %65
  %67 = load i8, i8* %66, align 1
  %68 = sext i8 %67 to i32
  %69 = sub nsw i32 %68, 97
  %70 = add nsw i32 %69, 10
  %71 = trunc i32 %70 to i8
  %72 = load i32, i32* %2, align 4
  %73 = sext i32 %72 to i64
  %74 = getelementptr inbounds [500 x i8], [500 x i8]* %12, i64 0, i64 %73
  store i8 %71, i8* %74, align 1
  br label %75

75:                                               ; preds = %63, %56, %49
  %76 = load i32, i32* %2, align 4
  %77 = sext i32 %76 to i64
  %78 = getelementptr inbounds [500 x i8], [500 x i8]* %12, i64 0, i64 %77
  %79 = load i8, i8* %78, align 1
  %80 = sext i8 %79 to i32
  %81 = icmp sge i32 %80, 48
  br i1 %81, label %82, label %100

82:                                               ; preds = %75
  %83 = load i32, i32* %2, align 4
  %84 = sext i32 %83 to i64
  %85 = getelementptr inbounds [500 x i8], [500 x i8]* %12, i64 0, i64 %84
  %86 = load i8, i8* %85, align 1
  %87 = sext i8 %86 to i32
  %88 = icmp sle i32 %87, 57
  br i1 %88, label %89, label %100

89:                                               ; preds = %82
  %90 = load i32, i32* %2, align 4
  %91 = sext i32 %90 to i64
  %92 = getelementptr inbounds [500 x i8], [500 x i8]* %12, i64 0, i64 %91
  %93 = load i8, i8* %92, align 1
  %94 = sext i8 %93 to i32
  %95 = sub nsw i32 %94, 48
  %96 = trunc i32 %95 to i8
  %97 = load i32, i32* %2, align 4
  %98 = sext i32 %97 to i64
  %99 = getelementptr inbounds [500 x i8], [500 x i8]* %12, i64 0, i64 %98
  store i8 %96, i8* %99, align 1
  br label %100

100:                                              ; preds = %89, %82, %75
  %101 = load i64, i64* %10, align 8
  %102 = load i32, i32* %2, align 4
  %103 = sext i32 %102 to i64
  %104 = getelementptr inbounds [500 x i8], [500 x i8]* %12, i64 0, i64 %103
  %105 = load i8, i8* %104, align 1
  %106 = sext i8 %105 to i64
  %107 = load i64, i64* %11, align 8
  %108 = mul i64 %106, %107
  %109 = add i64 %101, %108
  store i64 %109, i64* %10, align 8
  %110 = load i32, i32* %2, align 4
  %111 = icmp eq i32 %110, 0
  br i1 %111, label %112, label %113

112:                                              ; preds = %100
  br label %121

113:                                              ; preds = %100
  %114 = load i64, i64* %11, align 8
  %115 = load i32, i32* %7, align 4
  %116 = sext i32 %115 to i64
  %117 = mul i64 %114, %116
  store i64 %117, i64* %11, align 8
  br label %118

118:                                              ; preds = %113
  %119 = load i32, i32* %2, align 4
  %120 = add nsw i32 %119, -1
  store i32 %120, i32* %2, align 4
  br label %20

121:                                              ; preds = %112, %20
  %122 = load i64, i64* %10, align 8
  %123 = icmp eq i64 %122, 0
  br i1 %123, label %124, label %126

124:                                              ; preds = %121
  %125 = call i32 (i8*, ...) @printf(i8* getelementptr inbounds ([2 x i8], [2 x i8]* @.str.1, i64 0, i64 0))
  br label %178

126:                                              ; preds = %121
  store i32 0, i32* %2, align 4
  br label %127

127:                                              ; preds = %130, %126
  %128 = load i64, i64* %10, align 8
  %129 = icmp ne i64 %128, 0
  br i1 %129, label %130, label %146

130:                                              ; preds = %127
  %131 = load i64, i64* %10, align 8
  %132 = load i32, i32* %8, align 4
  %133 = sext i32 %132 to i64
  %134 = urem i64 %131, %133
  %135 = trunc i64 %134 to i32
  store i32 %135, i32* %4, align 4
  %136 = load i32, i32* %4, align 4
  %137 = load i32, i32* %2, align 4
  %138 = sext i32 %137 to i64
  %139 = getelementptr inbounds [1000 x i32], [1000 x i32]* %9, i64 0, i64 %138
  store i32 %136, i32* %139, align 4
  %140 = load i32, i32* %2, align 4
  %141 = add nsw i32 %140, 1
  store i32 %141, i32* %2, align 4
  %142 = load i64, i64* %10, align 8
  %143 = load i32, i32* %8, align 4
  %144 = sext i32 %143 to i64
  %145 = udiv i64 %142, %144
  store i64 %145, i64* %10, align 8
  br label %127

146:                                              ; preds = %127
  %147 = load i32, i32* %2, align 4
  %148 = sub nsw i32 %147, 1
  store i32 %148, i32* %2, align 4
  %149 = load i32, i32* %2, align 4
  store i32 %149, i32* %3, align 4
  br label %150

150:                                              ; preds = %174, %146
  %151 = load i32, i32* %3, align 4
  %152 = icmp sge i32 %151, 0
  br i1 %152, label %153, label %177

153:                                              ; preds = %150
  %154 = load i32, i32* %3, align 4
  %155 = sext i32 %154 to i64
  %156 = getelementptr inbounds [1000 x i32], [1000 x i32]* %9, i64 0, i64 %155
  %157 = load i32, i32* %156, align 4
  %158 = icmp sge i32 %157, 10
  br i1 %158, label %159, label %167

159:                                              ; preds = %153
  %160 = load i32, i32* %3, align 4
  %161 = sext i32 %160 to i64
  %162 = getelementptr inbounds [1000 x i32], [1000 x i32]* %9, i64 0, i64 %161
  %163 = load i32, i32* %162, align 4
  %164 = add nsw i32 %163, 65
  %165 = sub nsw i32 %164, 10
  %166 = call i32 (i8*, ...) @printf(i8* getelementptr inbounds ([3 x i8], [3 x i8]* @.str.2, i64 0, i64 0), i32 %165)
  br label %173

167:                                              ; preds = %153
  %168 = load i32, i32* %3, align 4
  %169 = sext i32 %168 to i64
  %170 = getelementptr inbounds [1000 x i32], [1000 x i32]* %9, i64 0, i64 %169
  %171 = load i32, i32* %170, align 4
  %172 = call i32 (i8*, ...) @printf(i8* getelementptr inbounds ([3 x i8], [3 x i8]* @.str.3, i64 0, i64 0), i32 %171)
  br label %173

173:                                              ; preds = %167, %159
  br label %174

174:                                              ; preds = %173
  %175 = load i32, i32* %3, align 4
  %176 = add nsw i32 %175, -1
  store i32 %176, i32* %3, align 4
  br label %150

177:                                              ; preds = %150
  br label %178

178:                                              ; preds = %177, %124
  %179 = load i32, i32* %1, align 4
  ret i32 %179
}

declare dso_local i32 @__isoc99_scanf(i8*, ...) #1

; Function Attrs: nounwind readonly
declare dso_local i64 @strlen(i8*) #2

declare dso_local i32 @printf(i8*, ...) #1


!llvm.module.flags = !{!0}
!llvm.ident = !{!1}

!0 = !{i32 1, !"wchar_size", i32 4}
!1 = !{!"clang version 10.0.0-4ubuntu1 "}
